; Function Attrs: mustprogress nofree norecurse nosync nounwind willreturn memory(read, inaccessiblemem: none) uwtable
define ptr @Cudd_addSetNZ(ptr noundef readonly captures(none) %0, ptr noundef readonly captures(none) %1, ptr noundef readonly captures(none) %2) local_unnamed_addr #2 {
  %4 = load ptr, ptr %1, align 8, !tbaa !26
  %5 = load ptr, ptr %2, align 8, !tbaa !26
  %6 = icmp eq ptr %4, %5
  br i1 %6, label %16, label %7

7:                                                ; preds = %3
  %8 = getelementptr inbounds nuw i8, ptr %0, i64 48
  %9 = load ptr, ptr %8, align 8, !tbaa !32
  %10 = icmp eq ptr %4, %9
  br i1 %10, label %16, label %11

11:                                               ; preds = %7
  %12 = icmp eq ptr %5, %9
  br i1 %12, label %16, label %13

13:                                               ; preds = %11
  %14 = load i32, ptr %5, align 8, !tbaa !27
  %15 = icmp eq i32 %14, 2147483647
  %. = select i1 %15, ptr %5, ptr null
  br label %16

16:                                               ; preds = %13, %11, %7, %3
  %.0 = phi ptr [ %4, %3 ], [ %5, %7 ], [ %4, %11 ], [ %., %13 ]
  ret ptr %.0
}